target datalayout = "e-m:e-p270:32:32-p271:32:32-p272:64:64-i64:64-i128:128-f80:128-n8:16:32:64-S128"
target triple = "x86_64-unknown-linux-gnu"

%"class.smt::theory_dummy" = type { %"class.smt::theory.base", i8, ptr }
%"class.smt::theory.base" = type <{ ptr, i32, [4 x i8], ptr, ptr, %class.ptr_vector, %class.svector, i32, i8 }>
%class.ptr_vector = type { %class.vector }
%class.vector = type { ptr }
%class.svector = type { %class.vector.0 }
%class.vector.0 = type { ptr }

; Function Attrs: mustprogress nounwind uwtable
define hidden noundef i32 @_ZN3smt12theory_dummy14final_check_ehEv(ptr noundef nonnull align 8 dereferenceable(64) %this) unnamed_addr #4 align 2 {
entry:
  %this.addr = alloca ptr, align 8
  store ptr %this, ptr %this.addr, align 8
  %this1 = load ptr, ptr %this.addr, align 8
  %m_theory_exprs = getelementptr inbounds %"class.smt::theory_dummy", ptr %this1, i32 0, i32 1
  %0 = load i8, ptr %m_theory_exprs, align 1
  %tobool = trunc i8 %0 to i1
  %cond = select i1 %tobool, i32 2, i32 0
  ret i32 %cond
}