; Function Attrs: mustprogress nofree norecurse nosync nounwind willreturn memory(argmem: read) uwtable
define hidden noundef i32 @_ZN3smt12theory_dummy14final_check_ehEv(ptr nocapture noundef nonnull readonly align 8 dereferenceable(64) %this) unnamed_addr #8 align 2 {
entry:
  %m_theory_exprs = getelementptr inbounds i8, ptr %this, i64 53
  %0 = load i8, ptr %m_theory_exprs, align 1
  %1 = shl i8 %0, 1
  %2 = and i8 %1, 2
  %cond = zext nneg i8 %2 to i32
  ret i32 %cond
}